target datalayout = "e-m:e-p270:32:32-p271:32:32-p272:64:64-i64:64-i128:128-f80:128-n8:16:32:64-S128"
target triple = "x86_64-pc-linux-gnu"

%struct.ossl_qtx_st = type { ptr, ptr, %struct.ossl_qrl_enc_level_set_st, ptr, ptr, ptr, i64, %struct.ossl_list_st_txe, %struct.ossl_list_st_txe, i64, i64, ptr, i64, i64, i64, ptr, ptr, ptr, ptr, ptr, ptr }
%struct.ossl_qrl_enc_level_set_st = type { [4 x %struct.ossl_qrl_enc_level_st] }
%struct.ossl_qrl_enc_level_st = type { %struct.quic_hdr_protector_st, ptr, [2 x ptr], ptr, ptr, i64, i64, i32, i32, i8, i8, [2 x [16 x i8]], [64 x i8] }
%struct.quic_hdr_protector_st = type { ptr, ptr, ptr, ptr, i32 }
%struct.ossl_list_st_txe = type { ptr, ptr, i64 }

; Function Attrs: nounwind uwtable
define i64 @ossl_qtx_get_cur_epoch_pkt_count(ptr noundef %0, i32 noundef %1) #0 {
  %3 = alloca i64, align 8
  %4 = alloca ptr, align 8
  %5 = alloca i32, align 4
  %6 = alloca ptr, align 8
  %7 = alloca i32, align 4
  store ptr %0, ptr %4, align 8, !tbaa !14
  store i32 %1, ptr %5, align 4, !tbaa !33
  call void @llvm.lifetime.start.p0(i64 8, ptr %6) #8
  %8 = load ptr, ptr %4, align 8, !tbaa !14
  %9 = getelementptr inbounds nuw %struct.ossl_qtx_st, ptr %8, i32 0, i32 2
  %10 = load i32, ptr %5, align 4, !tbaa !33
  %11 = call ptr @ossl_qrl_enc_level_set_get(ptr noundef %9, i32 noundef %10, i32 noundef 1)
  store ptr %11, ptr %6, align 8, !tbaa !51
  %12 = load ptr, ptr %6, align 8, !tbaa !51
  %13 = icmp eq ptr %12, null
  br i1 %13, label %14, label %15

14:                                               ; preds = %2
  store i64 -1, ptr %3, align 8
  store i32 1, ptr %7, align 4
  br label %19

15:                                               ; preds = %2
  %16 = load ptr, ptr %6, align 8, !tbaa !51
  %17 = getelementptr inbounds nuw %struct.ossl_qrl_enc_level_st, ptr %16, i32 0, i32 6
  %18 = load i64, ptr %17, align 8, !tbaa !103
  store i64 %18, ptr %3, align 8
  store i32 1, ptr %7, align 4
  br label %19

19:                                               ; preds = %15, %14
  call void @llvm.lifetime.end.p0(i64 8, ptr %6) #8
  %20 = load i64, ptr %3, align 8
  ret i64 %20
}