; Function Attrs: nounwind uwtable
define i64 @ossl_qtx_get_cur_epoch_pkt_count(ptr noundef %0, i32 noundef %1) local_unnamed_addr #0 {
  %3 = getelementptr inbounds nuw i8, ptr %0, i64 16
  %4 = tail call ptr @ossl_qrl_enc_level_set_get(ptr noundef nonnull %3, i32 noundef %1, i32 noundef 1) #11
  %5 = icmp eq ptr %4, null
  br i1 %5, label %9, label %6

6:                                                ; preds = %2
  %7 = getelementptr inbounds nuw i8, ptr %4, i64 88
  %8 = load i64, ptr %7, align 8, !tbaa !85
  br label %9

9:                                                ; preds = %2, %6
  %.0 = phi i64 [ %8, %6 ], [ -1, %2 ]
  ret i64 %.0
}